target datalayout = "e-m:e-p270:32:32-p271:32:32-p272:64:64-i64:64-i128:128-f80:128-n8:16:32:64-S128"
target triple = "x86_64-pc-linux-gnu"

%struct.createdb_failure_params = type { i32, i32, i32 }

; Function Attrs: inlinehint nounwind uwtable
define internal ptr @DatumGetPointer(i64 noundef %0) #7 {
  %2 = alloca i64, align 8
  store i64 %0, ptr %2, align 8
  %3 = load i64, ptr %2, align 8
  %4 = inttoptr i64 %3 to ptr
  ret ptr %4
}

; Function Attrs: nounwind uwtable
define internal void @createdb_failure_callback(i32 noundef %0, i64 noundef %1) #0 {
  %3 = alloca i32, align 4
  %4 = alloca i64, align 8
  %5 = alloca ptr, align 8
  store i32 %0, ptr %3, align 4
  store i64 %1, ptr %4, align 8
  call void @llvm.lifetime.start.p0(i64 8, ptr %5) #14
  %6 = load i64, ptr %4, align 8
  %7 = call ptr @DatumGetPointer(i64 noundef %6)
  store ptr %7, ptr %5, align 8
  %8 = load ptr, ptr %5, align 8
  %9 = getelementptr inbounds nuw %struct.createdb_failure_params, ptr %8, i32 0, i32 2
  %10 = load i32, ptr %9, align 4
  %11 = icmp eq i32 %10, 0
  br i1 %11, label %12, label %22

12:                                               ; preds = %2
  %13 = load ptr, ptr %5, align 8
  %14 = getelementptr inbounds nuw %struct.createdb_failure_params, ptr %13, i32 0, i32 1
  %15 = load i32, ptr %14, align 4
  call void @DropDatabaseBuffers(i32 noundef %15)
  %16 = load ptr, ptr %5, align 8
  %17 = getelementptr inbounds nuw %struct.createdb_failure_params, ptr %16, i32 0, i32 1
  %18 = load i32, ptr %17, align 4
  call void @ForgetDatabaseSyncRequests(i32 noundef %18)
  %19 = load ptr, ptr %5, align 8
  %20 = getelementptr inbounds nuw %struct.createdb_failure_params, ptr %19, i32 0, i32 1
  %21 = load i32, ptr %20, align 4
  call void @UnlockSharedObject(i32 noundef 1262, i32 noundef %21, i16 noundef zeroext 0, i32 noundef 1)
  br label %22

22:                                               ; preds = %12, %2
  %23 = load ptr, ptr %5, align 8
  %24 = getelementptr inbounds nuw %struct.createdb_failure_params, ptr %23, i32 0, i32 0
  %25 = load i32, ptr %24, align 4
  call void @UnlockSharedObject(i32 noundef 1262, i32 noundef %25, i16 noundef zeroext 0, i32 noundef 5)
  %26 = load ptr, ptr %5, align 8
  %27 = getelementptr inbounds nuw %struct.createdb_failure_params, ptr %26, i32 0, i32 1
  %28 = load i32, ptr %27, align 4
  call void @remove_dbtablespaces(i32 noundef %28)
  call void @llvm.lifetime.end.p0(i64 8, ptr %5) #14
  ret void
}