; Function Attrs: nounwind uwtable
define internal void @createdb_failure_callback(i32 %0, i64 noundef %1) #0 {
  %3 = inttoptr i64 %1 to ptr
  %4 = getelementptr inbounds nuw i8, ptr %3, i64 8
  %5 = load i32, ptr %4, align 4
  %6 = icmp eq i32 %5, 0
  br i1 %6, label %7, label %12

7:                                                ; preds = %2
  %8 = getelementptr inbounds nuw i8, ptr %3, i64 4
  %9 = load i32, ptr %8, align 4
  tail call void @DropDatabaseBuffers(i32 noundef %9) #16
  %10 = load i32, ptr %8, align 4
  tail call void @ForgetDatabaseSyncRequests(i32 noundef %10) #16
  %11 = load i32, ptr %8, align 4
  tail call void @UnlockSharedObject(i32 noundef 1262, i32 noundef %11, i16 noundef zeroext 0, i32 noundef 1) #16
  br label %12

12:                                               ; preds = %7, %2
  %13 = load i32, ptr %3, align 4
  tail call void @UnlockSharedObject(i32 noundef 1262, i32 noundef %13, i16 noundef zeroext 0, i32 noundef 5) #16
  %14 = getelementptr inbounds nuw i8, ptr %3, i64 4
  %15 = load i32, ptr %14, align 4
  tail call fastcc void @remove_dbtablespaces(i32 noundef %15)
  ret void
}